; Function Attrs: nounwind uwtable
define internal fastcc i32 @add_attributes(ptr noundef readonly captures(none) %0, ptr noundef nonnull %1, ptr noundef readonly captures(none) %2, i32 noundef range(i32 0, 5) %3) unnamed_addr #0 {
  %5 = zext nneg i32 %3 to i64
  %6 = tail call ptr @PyTuple_New(i64 noundef %5) #8
  %.not = icmp eq ptr %6, null
  br i1 %.not, label %Py_DECREF.exit22, label %.preheader

.preheader:                                       ; preds = %4
  %.not25 = icmp eq i32 %3, 0
  br i1 %.not25, label %._crit_edge, label %.lr.ph

.lr.ph:                                           ; preds = %.preheader
  %7 = getelementptr inbounds nuw i8, ptr %6, i64 24
  br label %8

8:                                                ; preds = %.lr.ph, %17
  %indvars.iv = phi i64 [ 0, %.lr.ph ], [ %indvars.iv.next, %17 ]
  %9 = getelementptr ptr, ptr %2, i64 %indvars.iv
  %10 = load ptr, ptr %9, align 8, !tbaa !131
  %11 = tail call ptr @PyUnicode_InternFromString(ptr noundef %10) #8
  %.not20 = icmp eq ptr %11, null
  br i1 %.not20, label %12, label %17

12:                                               ; preds = %8
  %13 = load i32, ptr %6, align 8, !tbaa !9
  %.not.i21 = icmp sgt i32 %13, -1
  br i1 %.not.i21, label %14, label %Py_DECREF.exit22

14:                                               ; preds = %12
  %15 = add nsw i32 %13, -1
  store i32 %15, ptr %6, align 8, !tbaa !9
  %16 = icmp eq i32 %15, 0
  br i1 %16, label %Py_DECREF.exit22.sink.split, label %Py_DECREF.exit22

17:                                               ; preds = %8
  %18 = getelementptr [1 x ptr], ptr %7, i64 0, i64 %indvars.iv
  store ptr %11, ptr %18, align 8, !tbaa !4
  %indvars.iv.next = add nuw nsw i64 %indvars.iv, 1
  %exitcond.not = icmp eq i64 %indvars.iv.next, %5
  br i1 %exitcond.not, label %._crit_edge, label %8, !llvm.loop !386

._crit_edge:                                      ; preds = %17, %.preheader
  %19 = getelementptr inbounds nuw i8, ptr %0, i64 1136
  %20 = load ptr, ptr %19, align 8, !tbaa !276
  %21 = tail call i32 @PyObject_SetAttr(ptr noundef nonnull %1, ptr noundef %20, ptr noundef nonnull %6) #8
  %22 = load i32, ptr %6, align 8, !tbaa !9
  %.not.i = icmp sgt i32 %22, -1
  br i1 %.not.i, label %23, label %Py_DECREF.exit22

23:                                               ; preds = %._crit_edge
  %24 = add nsw i32 %22, -1
  store i32 %24, ptr %6, align 8, !tbaa !9
  %25 = icmp eq i32 %24, 0
  br i1 %25, label %Py_DECREF.exit22.sink.split, label %Py_DECREF.exit22

Py_DECREF.exit22.sink.split:                      ; preds = %23, %14
  %.0.ph = phi i32 [ -1, %14 ], [ %21, %23 ]
  tail call void @_Py_Dealloc(ptr noundef nonnull %6) #8
  br label %Py_DECREF.exit22

Py_DECREF.exit22:                                 ; preds = %Py_DECREF.exit22.sink.split, %23, %._crit_edge, %14, %12, %4
  %.0 = phi i32 [ -1, %4 ], [ -1, %12 ], [ -1, %14 ], [ %21, %._crit_edge ], [ %21, %23 ], [ %.0.ph, %Py_DECREF.exit22.sink.split ]
  ret i32 %.0
}